target datalayout = "e-m:e-p270:32:32-p271:32:32-p272:64:64-i64:64-i128:128-f80:128-n8:16:32:64-S128"
target triple = "x86_64-pc-linux-gnu"

%struct.wtap_dumper = type { ptr, i32, i32, i32, i32, i8, i64, ptr, ptr, ptr, ptr, ptr, ptr, ptr, ptr, ptr, ptr, ptr, ptr, ptr, i32, i32, i32 }
%struct.erf_dump_t = type { i8, i8, i64, i64, i64, i8, i64, i64, i64, ptr, ptr, ptr, ptr }

; Function Attrs: null_pointer_is_valid sspstrong uwtable
define internal void @erf_dump_priv_free(ptr noundef %0) #0 {
  %2 = alloca ptr, align 8
  store ptr %0, ptr %2, align 8
  %3 = load ptr, ptr %2, align 8
  %4 = icmp ne ptr %3, null
  br i1 %4, label %5, label %39

5:                                                ; preds = %1
  %6 = load ptr, ptr %2, align 8
  %7 = getelementptr inbounds nuw %struct.erf_dump_t, ptr %6, i32 0, i32 10
  %8 = load ptr, ptr %7, align 8
  %9 = icmp ne ptr %8, null
  br i1 %9, label %10, label %15

10:                                               ; preds = %5
  %11 = load ptr, ptr %2, align 8
  %12 = getelementptr inbounds nuw %struct.erf_dump_t, ptr %11, i32 0, i32 10
  %13 = load ptr, ptr %12, align 8
  %14 = call ptr @g_ptr_array_free(ptr noundef %13, i32 noundef 1)
  br label %15

15:                                               ; preds = %10, %5
  %16 = load ptr, ptr %2, align 8
  %17 = getelementptr inbounds nuw %struct.erf_dump_t, ptr %16, i32 0, i32 11
  %18 = load ptr, ptr %17, align 8
  %19 = icmp ne ptr %18, null
  br i1 %19, label %20, label %25

20:                                               ; preds = %15
  %21 = load ptr, ptr %2, align 8
  %22 = getelementptr inbounds nuw %struct.erf_dump_t, ptr %21, i32 0, i32 11
  %23 = load ptr, ptr %22, align 8
  %24 = call ptr @g_array_free(ptr noundef %23, i32 noundef 1)
  br label %25

25:                                               ; preds = %20, %15
  %26 = load ptr, ptr %2, align 8
  %27 = getelementptr inbounds nuw %struct.erf_dump_t, ptr %26, i32 0, i32 9
  %28 = load ptr, ptr %27, align 8
  %29 = icmp ne ptr %28, null
  br i1 %29, label %30, label %34

30:                                               ; preds = %25
  %31 = load ptr, ptr %2, align 8
  %32 = getelementptr inbounds nuw %struct.erf_dump_t, ptr %31, i32 0, i32 9
  %33 = load ptr, ptr %32, align 8
  call void @g_free(ptr noundef %33)
  br label %34

34:                                               ; preds = %30, %25
  %35 = load ptr, ptr %2, align 8
  %36 = getelementptr inbounds nuw %struct.erf_dump_t, ptr %35, i32 0, i32 12
  %37 = load ptr, ptr %36, align 8
  call void @g_free(ptr noundef %37)
  %38 = load ptr, ptr %2, align 8
  call void @g_free(ptr noundef %38)
  br label %39

39:                                               ; preds = %34, %1
  ret void
}

; Function Attrs: null_pointer_is_valid sspstrong uwtable
define internal zeroext i1 @erf_dump_finish(ptr noundef %0, ptr noundef %1, ptr noundef %2) #0 {
  %4 = alloca ptr, align 8
  %5 = alloca ptr, align 8
  %6 = alloca ptr, align 8
  %7 = alloca ptr, align 8
  %8 = alloca i8, align 1
  store ptr %0, ptr %4, align 8
  store ptr %1, ptr %5, align 8
  store ptr %2, ptr %6, align 8
  call void @llvm.lifetime.start.p0(i64 8, ptr %7) #16
  %9 = load ptr, ptr %4, align 8
  %10 = getelementptr inbounds nuw %struct.wtap_dumper, ptr %9, i32 0, i32 7
  %11 = load ptr, ptr %10, align 8
  store ptr %11, ptr %7, align 8
  call void @llvm.lifetime.start.p0(i64 1, ptr %8) #16
  store i8 1, ptr %8, align 1
  %12 = load ptr, ptr %7, align 8
  %13 = getelementptr inbounds nuw %struct.erf_dump_t, ptr %12, i32 0, i32 0
  %14 = load i8, ptr %13, align 8, !range !12, !noundef !13
  %15 = trunc i8 %14 to i1
  br i1 %15, label %16, label %67

16:                                               ; preds = %3
  %17 = load ptr, ptr %7, align 8
  %18 = getelementptr inbounds nuw %struct.erf_dump_t, ptr %17, i32 0, i32 10
  %19 = load ptr, ptr %18, align 8
  %20 = icmp ne ptr %19, null
  br i1 %20, label %51, label %21

21:                                               ; preds = %16
  %22 = call ptr @g_ptr_array_new_with_free_func(ptr noundef @erf_meta_section_free)
  %23 = load ptr, ptr %7, align 8
  %24 = getelementptr inbounds nuw %struct.erf_dump_t, ptr %23, i32 0, i32 10
  store ptr %22, ptr %24, align 8
  %25 = load ptr, ptr %7, align 8
  %26 = getelementptr inbounds nuw %struct.erf_dump_t, ptr %25, i32 0, i32 5
  %27 = load i8, ptr %26, align 8
  %28 = zext i8 %27 to i32
  %29 = icmp eq i32 %28, 27
  br i1 %29, label %30, label %44

30:                                               ; preds = %21
  %31 = load ptr, ptr %7, align 8
  %32 = getelementptr inbounds nuw %struct.erf_dump_t, ptr %31, i32 0, i32 1
  %33 = load i8, ptr %32, align 1, !range !12, !noundef !13
  %34 = trunc i8 %33 to i1
  br i1 %34, label %35, label %44

35:                                               ; preds = %30
  %36 = load ptr, ptr %4, align 8
  %37 = load ptr, ptr %7, align 8
  %38 = getelementptr inbounds nuw %struct.erf_dump_t, ptr %37, i32 0, i32 9
  %39 = load ptr, ptr %38, align 8
  %40 = load ptr, ptr %7, align 8
  %41 = getelementptr inbounds nuw %struct.erf_dump_t, ptr %40, i32 0, i32 10
  %42 = load ptr, ptr %41, align 8
  %43 = call zeroext i1 @erf_comment_to_sections(ptr noundef %36, i16 noundef zeroext -256, i16 noundef zeroext 0, ptr noundef %39, ptr noundef %42)
  br label %50

44:                                               ; preds = %30, %21
  %45 = load ptr, ptr %4, align 8
  %46 = load ptr, ptr %7, align 8
  %47 = getelementptr inbounds nuw %struct.erf_dump_t, ptr %46, i32 0, i32 10
  %48 = load ptr, ptr %47, align 8
  %49 = call zeroext i1 @erf_wtap_info_to_sections(ptr noundef %45, ptr noundef %48)
  br label %50

50:                                               ; preds = %44, %35
  br label %51

51:                                               ; preds = %50, %16
  %52 = load ptr, ptr %4, align 8
  %53 = load ptr, ptr %7, align 8
  %54 = load ptr, ptr %7, align 8
  %55 = getelementptr inbounds nuw %struct.erf_dump_t, ptr %54, i32 0, i32 4
  %56 = load i64, ptr %55, align 8
  %57 = load ptr, ptr %7, align 8
  %58 = getelementptr inbounds nuw %struct.erf_dump_t, ptr %57, i32 0, i32 10
  %59 = load ptr, ptr %58, align 8
  %60 = load ptr, ptr %7, align 8
  %61 = getelementptr inbounds nuw %struct.erf_dump_t, ptr %60, i32 0, i32 11
  %62 = load ptr, ptr %61, align 8
  %63 = load ptr, ptr %5, align 8
  %64 = call zeroext i1 @erf_write_meta_record(ptr noundef %52, ptr noundef %53, i64 noundef %56, ptr noundef %59, ptr noundef %62, ptr noundef %63)
  br i1 %64, label %66, label %65

65:                                               ; preds = %51
  store i8 0, ptr %8, align 1
  br label %66

66:                                               ; preds = %65, %51
  br label %67

67:                                               ; preds = %66, %3
  %68 = load ptr, ptr %7, align 8
  call void @erf_dump_priv_free(ptr noundef %68)
  %69 = load ptr, ptr %4, align 8
  %70 = getelementptr inbounds nuw %struct.wtap_dumper, ptr %69, i32 0, i32 7
  store ptr null, ptr %70, align 8
  %71 = load i8, ptr %8, align 1, !range !12, !noundef !13
  %72 = trunc i8 %71 to i1
  call void @llvm.lifetime.end.p0(i64 1, ptr %8) #16
  call void @llvm.lifetime.end.p0(i64 8, ptr %7) #16
  ret i1 %72
}