; Function Attrs: null_pointer_is_valid sspstrong uwtable
define internal noundef zeroext i1 @erf_dump_finish(ptr noundef %0, ptr noundef %1, ptr readnone captures(none) %2) #0 {
  %4 = getelementptr inbounds nuw i8, ptr %0, i64 40
  %5 = load ptr, ptr %4, align 8
  %6 = load i8, ptr %5, align 8, !range !39, !noundef !40
  %7 = trunc nuw i8 %6 to i1
  br i1 %7, label %8, label %31

8:                                                ; preds = %3
  %9 = getelementptr inbounds nuw i8, ptr %5, i64 72
  %10 = load ptr, ptr %9, align 8
  %.not = icmp eq ptr %10, null
  br i1 %.not, label %11, label %24

11:                                               ; preds = %8
  %12 = tail call ptr @g_ptr_array_new_with_free_func(ptr noundef nonnull @erf_meta_section_free)
  store ptr %12, ptr %9, align 8
  %13 = getelementptr inbounds nuw i8, ptr %5, i64 32
  %14 = load i8, ptr %13, align 8
  %15 = icmp eq i8 %14, 27
  br i1 %15, label %16, label %23

16:                                               ; preds = %11
  %17 = getelementptr inbounds nuw i8, ptr %5, i64 1
  %18 = load i8, ptr %17, align 1, !range !39, !noundef !40
  %19 = trunc nuw i8 %18 to i1
  br i1 %19, label %20, label %23

20:                                               ; preds = %16
  %21 = getelementptr inbounds nuw i8, ptr %5, i64 64
  %22 = load ptr, ptr %21, align 8
  tail call fastcc void @erf_comment_to_sections(i16 noundef zeroext -256, i16 noundef zeroext 0, ptr noundef %22, ptr noundef %12)
  br label %24

23:                                               ; preds = %16, %11
  tail call fastcc void @erf_wtap_info_to_sections(ptr noundef %0, ptr noundef %12)
  br label %24

24:                                               ; preds = %20, %23, %8
  %25 = getelementptr inbounds nuw i8, ptr %5, i64 24
  %26 = load i64, ptr %25, align 8
  %27 = load ptr, ptr %9, align 8
  %28 = getelementptr inbounds nuw i8, ptr %5, i64 80
  %29 = load ptr, ptr %28, align 8
  %30 = tail call fastcc zeroext i1 @erf_write_meta_record(ptr noundef %0, ptr noundef %5, i64 noundef %26, ptr noundef %27, ptr noundef %29, ptr noundef %1)
  br label %31

31:                                               ; preds = %24, %3
  %.0 = phi i1 [ true, %3 ], [ %30, %24 ]
  %.not.i = icmp eq ptr %5, null
  br i1 %.not.i, label %erf_dump_priv_free.exit, label %32

32:                                               ; preds = %31
  %33 = getelementptr inbounds nuw i8, ptr %5, i64 72
  %34 = load ptr, ptr %33, align 8
  %.not12.i = icmp eq ptr %34, null
  br i1 %.not12.i, label %37, label %35

35:                                               ; preds = %32
  %36 = tail call ptr @g_ptr_array_free(ptr noundef nonnull %34, i32 noundef 1)
  br label %37

37:                                               ; preds = %35, %32
  %38 = getelementptr inbounds nuw i8, ptr %5, i64 80
  %39 = load ptr, ptr %38, align 8
  %.not13.i = icmp eq ptr %39, null
  br i1 %.not13.i, label %42, label %40

40:                                               ; preds = %37
  %41 = tail call ptr @g_array_free(ptr noundef nonnull %39, i32 noundef 1)
  br label %42

42:                                               ; preds = %40, %37
  %43 = getelementptr inbounds nuw i8, ptr %5, i64 64
  %44 = load ptr, ptr %43, align 8
  %.not14.i = icmp eq ptr %44, null
  br i1 %.not14.i, label %46, label %45

45:                                               ; preds = %42
  tail call void @g_free(ptr noundef nonnull %44)
  br label %46

46:                                               ; preds = %45, %42
  %47 = getelementptr inbounds nuw i8, ptr %5, i64 88
  %48 = load ptr, ptr %47, align 8
  tail call void @g_free(ptr noundef %48)
  tail call void @g_free(ptr noundef nonnull %5)
  br label %erf_dump_priv_free.exit

erf_dump_priv_free.exit:                          ; preds = %31, %46
  store ptr null, ptr %4, align 8
  ret i1 %.0
}